Certificate:
    Data:
        Version: 3 (0x2)
        Serial Number:
            5d:99:29:b6:29:f2:84:0b:e2:cc:01:f8:82:ab:6e:a9
        Signature Algorithm: sha256WithRSAEncryption
        Issuer: C=MX, O=MyDomain Inc., CN=Sub CA
        Validity
            Not Before: Nov  5 06:15:39 2023 GMT
            Not After : Nov  4 06:15:39 2024 GMT
        Subject: C=MX, ST=Some-State, O=MyDomain Inc., CN=mydomain.com
        Subject Public Key Info:
            Public Key Algorithm: rsaEncryption
                Public-Key: (2048 bit)
                Modulus:
                    00:d7:f0:71:ad:1f:cd:50:be:70:12:c5:a6:5c:c7:
                    c6:1b:c1:4f:00:4f:48:a9:2f:0e:3d:f6:6b:9e:d9:
                    fc:7f:7c:d6:32:c4:74:28:db:c9:1b:3e:d9:92:d3:
                    cd:a9:98:fc:13:5d:57:c5:9a:5f:19:ea:6d:9f:38:
                    26:bb:99:e2:6a:6b:ad:44:3a:e8:0c:ac:09:8d:82:
                    86:f7:a3:89:b8:03:44:0a:72:8b:f5:a0:48:bc:7d:
                    03:b7:3d:a0:91:10:c8:d7:2d:e7:e5:3f:ee:7c:07:
                    21:c2:5c:2a:c6:f8:ed:14:75:4c:43:07:d8:ea:b5:
                    a8:76:c9:bb:9c:fb:a2:f3:7f:cc:c9:0e:f1:3b:2c:
                    5e:c7:7c:4d:09:d3:11:13:69:cb:b7:4a:0a:01:5d:
                    eb:78:77:22:a2:05:47:e6:84:2d:59:e7:e3:f8:52:
                    36:2f:09:38:cc:ba:10:8d:6f:16:b6:55:81:2b:a9:
                    be:70:1e:78:8a:35:28:54:de:d3:22:1c:4d:99:19:
                    21:8e:6f:12:df:61:e5:ee:ac:9e:d5:03:54:7e:af:
                    a9:60:8d:ee:bb:97:07:21:6d:2a:70:eb:d0:31:a6:
                    16:91:57:32:9d:45:34:54:2a:3c:e3:99:71:d1:7c:
                    0a:90:f5:4b:02:c6:ca:62:a4:1d:da:62:66:99:8e:
                    45:cd
                Exponent: 65537 (0x10001)
        X509v3 extensions:
            Authority Information Access: 
                CA Issuers - URI:http://sub-ca.mydomain.com/sub-ca.crt
                OCSP - URI:http://ocsp.sub-ca.mydomain.com:9081
            X509v3 Authority Key Identifier: 
                68:78:94:DC:10:C7:39:7C:6E:B6:85:0C:64:BE:5A:11:99:6A:0D:6A
            X509v3 Basic Constraints: critical
                CA:FALSE
            X509v3 CRL Distribution Points: 
                Full Name:
                  URI:http://sub-ca.mydomain.com/sub-ca.crl
            X509v3 Extended Key Usage: 
                TLS Web Client Authentication, TLS Web Server Authentication
            X509v3 Key Usage: critical
                Digital Signature, Key Encipherment
            X509v3 Subject Key Identifier: 
                68:7C:2D:75:7B:D8:8F:B0:AE:F9:A4:17:E2:C8:D0:BE:9F:1A:E5:0E
    Signature Algorithm: sha256WithRSAEncryption
    Signature Value:
        3b:0e:dc:e2:18:fc:28:e1:0b:c3:d8:6e:65:0f:75:18:ec:f3:
        20:fe:31:cc:14:5c:76:93:f2:57:2f:0c:d0:e3:35:c2:84:ea:
        61:ae:b9:2a:1a:51:b3:f9:86:1c:ad:c1:ed:f4:2f:6a:7f:54:
        89:c4:17:4c:97:ec:57:7b:36:40:8f:8c:1e:84:d0:35:0d:8d:
        2c:6b:d6:2b:e6:0c:6c:e3:0f:4e:0d:5a:62:51:3c:e9:02:3f:
        d1:cd:e6:cf:5b:bb:11:7f:7e:3f:f0:7d:32:dc:32:91:96:f2:
        54:3b:f0:78:e0:59:01:f0:bf:a9:99:c8:ad:9f:88:78:45:86:
        46:28:2f:82:b4:22:60:e7:86:d5:48:36:3a:f1:10:61:f4:7e:
        a1:0b:50:38:6f:9e:5a:c5:f1:69:52:e5:a5:cc:94:d2:a4:48:
        a4:31:50:98:c9:73:5a:92:5d:f6:f6:d8:14:51:aa:10:37:68:
        6d:f3:f1:b7:aa:90:b1:e7:a4:39:0b:7a:8c:18:99:e9:0a:4a:
        74:47:51:ed:e7:d5:5d:c2:ae:d7:f4:f5:29:aa:8d:dc:1f:9b:
        e9:b4:7f:8d:79:f8:28:16:c0:5c:21:d9:bd:36:9a:09:7b:0d:
        2c:bc:4b:75:9c:8d:d1:60:a1:43:27:f2:49:53:8c:98:54:6b:
        02:d2:12:84
-----BEGIN CERTIFICATE-----
MIIEQTCCAymgAwIBAgIQXZkptinyhAvizAH4gqtuqTANBgkqhkiG9w0BAQsFADA2
MQswCQYDVQQGEwJNWDEWMBQGA1UECgwNTXlEb21haW4gSW5jLjEPMA0GA1UEAwwG
U3ViIENBMB4XDTIzMTEwNTA2MTUzOVoXDTI0MTEwNDA2MTUzOVowUTELMAkGA1UE
BhMCTVgxEzARBgNVBAgMClNvbWUtU3RhdGUxFjAUBgNVBAoMDU15RG9tYWluIElu
Yy4xFTATBgNVBAMMDG15ZG9tYWluLmNvbTCCASIwDQYJKoZIhvcNAQEBBQADggEP
ADCCAQoCggEBANfwca0fzVC+cBLFplzHxhvBTwBPSKkvDj32a57Z/H981jLEdCjb
yRs+2ZLTzamY/BNdV8WaXxnqbZ84JruZ4mprrUQ66AysCY2ChvejibgDRApyi/Wg
SLx9A7c9oJEQyNct5+U/7nwHIcJcKsb47RR1TEMH2Oq1qHbJu5z7ovN/zMkO8Tss
Xsd8TQnTERNpy7dKCgFd63h3IqIFR+aELVnn4/hSNi8JOMy6EI1vFrZVgSupvnAe
eIo1KFTe0yIcTZkZIY5vEt9h5e6sntUDVH6vqWCN7ruXByFtKnDr0DGmFpFXMp1F
NFQqPOOZcdF8CpD1SwLGymKkHdpiZpmORc0CAwEAAaOCAS4wggEqMHMGCCsGAQUF
BwEBBGcwZTAxBggrBgEFBQcwAoYlaHR0cDovL3N1Yi1jYS5teWRvbWFpbi5jb20v
c3ViLWNhLmNydDAwBggrBgEFBQcwAYYkaHR0cDovL29jc3Auc3ViLWNhLm15ZG9t
YWluLmNvbTo5MDgxMB8GA1UdIwQYMBaAFGh4lNwQxzl8braFDGS+WhGZag1qMAwG
A1UdEwEB/wQCMAAwNgYDVR0fBC8wLTAroCmgJ4YlaHR0cDovL3N1Yi1jYS5teWRv
bWFpbi5jb20vc3ViLWNhLmNybDAdBgNVHSUEFjAUBggrBgEFBQcDAgYIKwYBBQUH
AwEwDgYDVR0PAQH/BAQDAgWgMB0GA1UdDgQWBBRofC11e9iPsK75pBfiyNC+nxrl
DjANBgkqhkiG9w0BAQsFAAOCAQEAOw7c4hj8KOELw9huZQ91GOzzIP4xzBRcdpPy
Vy8M0OM1woTqYa65KhpRs/mGHK3B7fQvan9UicQXTJfsV3s2QI+MHoTQNQ2NLGvW
K+YMbOMPTg1aYlE86QI/0c3mz1u7EX9+P/B9MtwykZbyVDvweOBZAfC/qZnIrZ+I
eEWGRigvgrQiYOeG1Ug2OvEQYfR+oQtQOG+eWsXxaVLlpcyU0qRIpDFQmMlzWpJd
9vbYFFGqEDdobfPxt6qQseekOQt6jBiZ6QpKdEdR7efVXcKu1/T1KaqN3B+b6bR/
jXn4KBbAXCHZvTaaCXsNLLxLdZyN0WChQyfySVOMmFRrAtIShA==
-----END CERTIFICATE-----
