Certificate:
    Data:
        Version: 3 (0x2)
        Serial Number:
            5d:99:29:b6:29:f2:84:0b:e2:cc:01:f8:82:ab:6e:a7
        Signature Algorithm: sha256WithRSAEncryption
        Issuer: C=MX, O=MyDomain Inc., CN=Root CA
        Validity
            Not Before: Nov  5 06:14:40 2023 GMT
            Not After : Nov  2 06:14:40 2033 GMT
        Subject: C=MX, O=MyDomain Inc., CN=Root CA
        Subject Public Key Info:
            Public Key Algorithm: rsaEncryption
                Public-Key: (4096 bit)
                Modulus:
                    00:a4:ff:5e:a9:2c:84:eb:3c:33:97:c4:fa:50:d5:
                    94:31:e4:e5:91:d2:b1:ba:b4:f4:af:d7:d5:a6:bd:
                    42:e0:3b:77:af:38:29:7b:3c:ab:7a:30:bc:5d:51:
                    9d:2b:c4:93:f4:17:ec:64:bd:b0:4d:cb:c6:c7:07:
                    65:bd:c0:f8:59:e0:67:b8:3c:1d:90:a1:53:ed:a6:
                    17:36:19:3c:19:a7:f3:e2:cd:e6:e0:41:d1:0e:03:
                    76:50:93:3b:68:45:e4:4e:ef:d6:2d:c8:3e:04:55:
                    28:de:0d:40:40:aa:b8:b8:cb:07:ca:b3:d1:77:b9:
                    6d:da:75:f9:8d:bc:da:8e:85:05:9b:77:d9:d6:28:
                    55:75:cd:62:1b:1b:48:d9:d0:ce:c7:08:36:27:87:
                    6e:0f:47:80:54:21:bd:9e:45:41:42:25:16:d2:df:
                    17:de:c4:17:fd:70:9f:cb:29:64:d6:26:3b:a3:1d:
                    bf:df:f4:65:3a:cd:b7:9b:ee:72:8b:49:a9:20:da:
                    d3:4e:72:84:ac:ba:6d:0a:22:84:97:1e:5c:73:32:
                    e6:33:11:38:63:df:51:00:5e:12:66:83:32:29:46:
                    17:54:82:0e:b6:70:fa:7b:a2:48:cd:20:96:07:0a:
                    46:b2:2e:b8:40:23:63:52:54:ab:1d:23:36:9a:60:
                    23:b9:2f:87:24:b9:aa:e4:88:f2:bc:a7:a9:75:7b:
                    2b:d3:e1:c3:b1:dd:a4:81:b9:b7:d7:6b:d9:26:8c:
                    a3:eb:e6:47:30:d9:a9:0e:ba:c3:9f:4b:12:eb:82:
                    4e:b1:92:1c:f9:80:dc:fd:2d:25:c5:eb:0c:cd:fb:
                    93:d7:d2:9c:6f:f2:59:c5:f8:11:85:fe:9b:b3:ac:
                    25:aa:21:e1:d5:0e:8d:4f:10:35:a4:ea:bd:6e:ba:
                    9d:4b:97:59:0e:f0:90:ce:62:c9:d1:df:0b:85:5c:
                    58:05:03:a5:84:0a:5d:2f:76:70:66:23:c7:44:85:
                    1e:a9:20:d0:92:a6:87:53:fe:7d:08:f4:18:77:56:
                    04:2f:c1:d8:7a:3d:e3:43:89:1e:59:4c:09:f8:6a:
                    14:74:32:bf:32:c4:14:c3:64:35:79:3b:06:b1:6b:
                    78:52:f1:bc:00:70:6b:1b:cd:79:82:af:98:c6:a2:
                    d5:03:11:81:ba:ef:1a:b0:32:b5:47:28:28:3c:15:
                    9c:3b:99:0d:eb:25:53:b8:16:63:ab:c7:ad:58:c5:
                    39:ed:9d:9f:86:b7:35:2a:b0:80:24:15:11:dc:28:
                    fb:35:0b:d3:29:60:81:9c:9c:db:d7:99:3b:fa:80:
                    49:a4:fd:c9:04:05:f1:46:f8:3d:b7:ef:18:59:26:
                    d4:23:cf
                Exponent: 65537 (0x10001)
        X509v3 extensions:
            X509v3 Basic Constraints: critical
                CA:TRUE
            X509v3 Key Usage: critical
                Certificate Sign, CRL Sign
            X509v3 Subject Key Identifier: 
                F3:5E:66:B7:22:A5:20:FD:C0:45:58:51:9A:32:1A:04:A1:1C:4C:AC
    Signature Algorithm: sha256WithRSAEncryption
    Signature Value:
        5c:e5:ac:a5:37:2f:c5:f0:a3:36:f0:7e:e7:31:99:e0:4e:16:
        9d:53:37:e1:1f:4c:55:f3:24:2f:3f:3e:99:fe:34:c3:34:cc:
        b7:1b:6a:86:0c:4d:49:9f:e3:f7:7f:da:17:6a:9c:ca:04:82:
        e5:02:9c:6b:ab:ce:1f:7e:fe:73:24:3a:c5:a9:a6:01:85:83:
        60:de:6d:30:69:af:47:22:7d:b0:3d:37:46:4f:3d:d0:be:ed:
        ea:a2:19:7c:ae:50:cb:0f:70:2e:49:22:f0:d7:c1:1a:6e:45:
        dc:44:03:e8:b6:7d:66:7c:7c:a9:f8:47:aa:a4:22:97:0c:4a:
        41:9e:1d:c9:72:59:5b:d4:03:51:4d:e7:ea:97:f2:55:cb:e5:
        58:b2:1e:88:36:77:2d:1b:84:95:30:21:88:f2:b4:3b:6d:60:
        59:e4:7a:1c:b4:b1:24:c3:e9:50:48:d7:8b:16:27:23:54:49:
        6a:d1:fd:01:14:4a:01:3e:9b:d7:ff:2e:96:b4:4d:48:06:f0:
        15:ad:b3:8b:34:02:56:3a:a0:39:be:81:50:7b:b0:dd:10:69:
        34:ed:01:a0:e7:c3:41:38:5b:e2:3a:04:29:98:72:99:73:c7:
        e9:0c:d3:69:dd:3b:df:67:43:ce:26:2e:a9:cb:40:60:45:5b:
        e1:fd:4e:d9:e6:68:df:ff:21:aa:ef:41:08:5e:47:e9:24:1c:
        d1:44:d0:fc:c1:32:8b:01:db:af:68:77:a6:4e:2a:fe:d4:95:
        3f:ae:00:23:56:78:dd:d9:d8:d8:7e:18:b1:f5:82:25:87:79:
        7b:91:d0:9c:18:64:25:62:71:0c:d3:05:01:b0:71:ca:ce:76:
        98:d2:bd:97:e5:da:8a:0f:19:cc:0d:13:b8:fa:65:3b:8b:41:
        cc:b5:7a:0d:97:be:60:5c:0a:6d:01:40:7e:fd:0b:26:d5:78:
        a6:63:60:e2:92:56:c3:ab:c7:ec:2a:6f:6b:d2:04:33:5d:63:
        1b:89:2c:28:2f:31:4e:ad:fe:f6:ca:95:3e:c7:3b:f3:3c:ee:
        2f:59:da:18:db:7e:ee:7d:af:ea:47:50:3f:c5:61:6d:f3:cd:
        74:78:7e:f8:d9:bd:1f:96:0c:05:42:22:b6:cb:6d:3b:66:1e:
        25:38:f1:71:8b:e0:59:cd:ba:c4:07:d6:aa:41:d0:c4:c6:9b:
        10:9f:4b:76:b5:58:85:a3:e2:ce:ee:20:f4:f9:0c:f5:47:57:
        10:56:d8:76:07:af:06:64:f0:cf:f2:a0:0b:8a:43:37:35:bd:
        90:04:60:27:2e:41:ff:a4:e7:9d:1e:36:5b:72:92:6e:d0:f4:
        59:97:2f:7a:6e:9c:a7:c2
-----BEGIN CERTIFICATE-----
MIIFOjCCAyKgAwIBAgIQXZkptinyhAvizAH4gqtupzANBgkqhkiG9w0BAQsFADA3
MQswCQYDVQQGEwJNWDEWMBQGA1UECgwNTXlEb21haW4gSW5jLjEQMA4GA1UEAwwH
Um9vdCBDQTAeFw0yMzExMDUwNjE0NDBaFw0zMzExMDIwNjE0NDBaMDcxCzAJBgNV
BAYTAk1YMRYwFAYDVQQKDA1NeURvbWFpbiBJbmMuMRAwDgYDVQQDDAdSb290IENB
MIICIjANBgkqhkiG9w0BAQEFAAOCAg8AMIICCgKCAgEApP9eqSyE6zwzl8T6UNWU
MeTlkdKxurT0r9fVpr1C4Dt3rzgpezyrejC8XVGdK8ST9BfsZL2wTcvGxwdlvcD4
WeBnuDwdkKFT7aYXNhk8Gafz4s3m4EHRDgN2UJM7aEXkTu/WLcg+BFUo3g1AQKq4
uMsHyrPRd7lt2nX5jbzajoUFm3fZ1ihVdc1iGxtI2dDOxwg2J4duD0eAVCG9nkVB
QiUW0t8X3sQX/XCfyylk1iY7ox2/3/RlOs23m+5yi0mpINrTTnKErLptCiKElx5c
czLmMxE4Y99RAF4SZoMyKUYXVIIOtnD6e6JIzSCWBwpGsi64QCNjUlSrHSM2mmAj
uS+HJLmq5IjyvKepdXsr0+HDsd2kgbm312vZJoyj6+ZHMNmpDrrDn0sS64JOsZIc
+YDc/S0lxesMzfuT19Kcb/JZxfgRhf6bs6wlqiHh1Q6NTxA1pOq9brqdS5dZDvCQ
zmLJ0d8LhVxYBQOlhApdL3ZwZiPHRIUeqSDQkqaHU/59CPQYd1YEL8HYej3jQ4ke
WUwJ+GoUdDK/MsQUw2Q1eTsGsWt4UvG8AHBrG815gq+YxqLVAxGBuu8asDK1Rygo
PBWcO5kN6yVTuBZjq8etWMU57Z2fhrc1KrCAJBUR3Cj7NQvTKWCBnJzb15k7+oBJ
pP3JBAXxRvg9t+8YWSbUI88CAwEAAaNCMEAwDwYDVR0TAQH/BAUwAwEB/zAOBgNV
HQ8BAf8EBAMCAQYwHQYDVR0OBBYEFPNeZrcipSD9wEVYUZoyGgShHEysMA0GCSqG
SIb3DQEBCwUAA4ICAQBc5aylNy/F8KM28H7nMZngThadUzfhH0xV8yQvPz6Z/jTD
NMy3G2qGDE1Jn+P3f9oXapzKBILlApxrq84ffv5zJDrFqaYBhYNg3m0waa9HIn2w
PTdGTz3Qvu3qohl8rlDLD3AuSSLw18EabkXcRAPotn1mfHyp+EeqpCKXDEpBnh3J
cllb1ANRTefql/JVy+VYsh6INnctG4SVMCGI8rQ7bWBZ5HoctLEkw+lQSNeLFicj
VElq0f0BFEoBPpvX/y6WtE1IBvAVrbOLNAJWOqA5voFQe7DdEGk07QGg58NBOFvi
OgQpmHKZc8fpDNNp3TvfZ0POJi6py0BgRVvh/U7Z5mjf/yGq70EIXkfpJBzRRND8
wTKLAduvaHemTir+1JU/rgAjVnjd2djYfhix9YIlh3l7kdCcGGQlYnEM0wUBsHHK
znaY0r2X5dqKDxnMDRO4+mU7i0HMtXoNl75gXAptAUB+/Qsm1XimY2DiklbDq8fs
Km9r0gQzXWMbiSwoLzFOrf72ypU+xzvzPO4vWdoY237ufa/qR1A/xWFt8810eH74
2b0flgwFQiK2y207Zh4lOPFxi+BZzbrEB9aqQdDExpsQn0t2tViFo+LO7iD0+Qz1
R1cQVth2B68GZPDP8qALikM3Nb2QBGAnLkH/pOedHjZbcpJu0PRZly96bpynwg==
-----END CERTIFICATE-----
