Certificate:
    Data:
        Version: 3 (0x2)
        Serial Number:
            5d:99:29:b6:29:f2:84:0b:e2:cc:01:f8:82:ab:6e:a9
        Signature Algorithm: sha256WithRSAEncryption
        Issuer: C=MX, O=MyDomain Inc., CN=Sub CA
        Validity
            Not Before: Nov  5 06:15:39 2023 GMT
            Not After : Nov  4 06:15:39 2024 GMT
        Subject: C=MX, ST=Some-State, O=MyDomain Inc., CN=mydomain.com
        Subject Public Key Info:
            Public Key Algorithm: rsaEncryption
                Public-Key: (2048 bit)
                Modulus:
                    00:d7:f0:71:ad:1f:cd:50:be:70:12:c5:a6:5c:c7:
                    c6:1b:c1:4f:00:4f:48:a9:2f:0e:3d:f6:6b:9e:d9:
                    fc:7f:7c:d6:32:c4:74:28:db:c9:1b:3e:d9:92:d3:
                    cd:a9:98:fc:13:5d:57:c5:9a:5f:19:ea:6d:9f:38:
                    26:bb:99:e2:6a:6b:ad:44:3a:e8:0c:ac:09:8d:82:
                    86:f7:a3:89:b8:03:44:0a:72:8b:f5:a0:48:bc:7d:
                    03:b7:3d:a0:91:10:c8:d7:2d:e7:e5:3f:ee:7c:07:
                    21:c2:5c:2a:c6:f8:ed:14:75:4c:43:07:d8:ea:b5:
                    a8:76:c9:bb:9c:fb:a2:f3:7f:cc:c9:0e:f1:3b:2c:
                    5e:c7:7c:4d:09:d3:11:13:69:cb:b7:4a:0a:01:5d:
                    eb:78:77:22:a2:05:47:e6:84:2d:59:e7:e3:f8:52:
                    36:2f:09:38:cc:ba:10:8d:6f:16:b6:55:81:2b:a9:
                    be:70:1e:78:8a:35:28:54:de:d3:22:1c:4d:99:19:
                    21:8e:6f:12:df:61:e5:ee:ac:9e:d5:03:54:7e:af:
                    a9:60:8d:ee:bb:97:07:21:6d:2a:70:eb:d0:31:a6:
                    16:91:57:32:9d:45:34:54:2a:3c:e3:99:71:d1:7c:
                    0a:90:f5:4b:02:c6:ca:62:a4:1d:da:62:66:99:8e:
                    45:cd
                Exponent: 65537 (0x10001)
        X509v3 extensions:
            Authority Information Access: 
                CA Issuers - URI:http://sub-ca.mydomain.com/sub-ca.crt
                OCSP - URI:http://ocsp.sub-ca.mydomain.com:9081
            X509v3 Authority Key Identifier: 
                68:78:94:DC:10:C7:39:7C:6E:B6:85:0C:64:BE:5A:11:99:6A:0D:6A
            X509v3 Basic Constraints: critical
                CA:FALSE
            X509v3 CRL Distribution Points: 
                Full Name:
                  URI:http://sub-ca.mydomain.com/sub-ca.crl
            X509v3 Extended Key Usage: 
                TLS Web Client Authentication, TLS Web Server Authentication
            X509v3 Key Usage: critical
                Digital Signature, Key Encipherment
            X509v3 Subject Key Identifier: 
                68:7C:2D:75:7B:D8:8F:B0:AE:F9:A4:17:E2:C8:D0:BE:9F:1A:E5:0E
    Signature Algorithm: sha256WithRSAEncryption
    Signature Value:
        3b:0e:dc:e2:18:fc:28:e1:0b:c3:d8:6e:65:0f:75:18:ec:f3:
        20:fe:31:cc:14:5c:76:93:f2:57:2f:0c:d0:e3:35:c2:84:ea:
        61:ae:b9:2a:1a:51:b3:f9:86:1c:ad:c1:ed:f4:2f:6a:7f:54:
        89:c4:17:4c:97:ec:57:7b:36:40:8f:8c:1e:84:d0:35:0d:8d:
        2c:6b:d6:2b:e6:0c:6c:e3:0f:4e:0d:5a:62:51:3c:e9:02:3f:
        d1:cd:e6:cf:5b:bb:11:7f:7e:3f:f0:7d:32:dc:32:91:96:f2:
        54:3b:f0:78:e0:59:01:f0:bf:a9:99:c8:ad:9f:88:78:45:86:
        46:28:2f:82:b4:22:60:e7:86:d5:48:36:3a:f1:10:61:f4:7e:
        a1:0b:50:38:6f:9e:5a:c5:f1:69:52:e5:a5:cc:94:d2:a4:48:
        a4:31:50:98:c9:73:5a:92:5d:f6:f6:d8:14:51:aa:10:37:68:
        6d:f3:f1:b7:aa:90:b1:e7:a4:39:0b:7a:8c:18:99:e9:0a:4a:
        74:47:51:ed:e7:d5:5d:c2:ae:d7:f4:f5:29:aa:8d:dc:1f:9b:
        e9:b4:7f:8d:79:f8:28:16:c0:5c:21:d9:bd:36:9a:09:7b:0d:
        2c:bc:4b:75:9c:8d:d1:60:a1:43:27:f2:49:53:8c:98:54:6b:
        02:d2:12:84
-----BEGIN CERTIFICATE-----
MIIEQTCCAymgAwIBAgIQXZkptinyhAvizAH4gqtuqTANBgkqhkiG9w0BAQsFADA2
MQswCQYDVQQGEwJNWDEWMBQGA1UECgwNTXlEb21haW4gSW5jLjEPMA0GA1UEAwwG
U3ViIENBMB4XDTIzMTEwNTA2MTUzOVoXDTI0MTEwNDA2MTUzOVowUTELMAkGA1UE
BhMCTVgxEzARBgNVBAgMClNvbWUtU3RhdGUxFjAUBgNVBAoMDU15RG9tYWluIElu
Yy4xFTATBgNVBAMMDG15ZG9tYWluLmNvbTCCASIwDQYJKoZIhvcNAQEBBQADggEP
ADCCAQoCggEBANfwca0fzVC+cBLFplzHxhvBTwBPSKkvDj32a57Z/H981jLEdCjb
yRs+2ZLTzamY/BNdV8WaXxnqbZ84JruZ4mprrUQ66AysCY2ChvejibgDRApyi/Wg
SLx9A7c9oJEQyNct5+U/7nwHIcJcKsb47RR1TEMH2Oq1qHbJu5z7ovN/zMkO8Tss
Xsd8TQnTERNpy7dKCgFd63h3IqIFR+aELVnn4/hSNi8JOMy6EI1vFrZVgSupvnAe
eIo1KFTe0yIcTZkZIY5vEt9h5e6sntUDVH6vqWCN7ruXByFtKnDr0DGmFpFXMp1F
NFQqPOOZcdF8CpD1SwLGymKkHdpiZpmORc0CAwEAAaOCAS4wggEqMHMGCCsGAQUF
BwEBBGcwZTAxBggrBgEFBQcwAoYlaHR0cDovL3N1Yi1jYS5teWRvbWFpbi5jb20v
c3ViLWNhLmNydDAwBggrBgEFBQcwAYYkaHR0cDovL29jc3Auc3ViLWNhLm15ZG9t
YWluLmNvbTo5MDgxMB8GA1UdIwQYMBaAFGh4lNwQxzl8braFDGS+WhGZag1qMAwG
A1UdEwEB/wQCMAAwNgYDVR0fBC8wLTAroCmgJ4YlaHR0cDovL3N1Yi1jYS5teWRv
bWFpbi5jb20vc3ViLWNhLmNybDAdBgNVHSUEFjAUBggrBgEFBQcDAgYIKwYBBQUH
AwEwDgYDVR0PAQH/BAQDAgWgMB0GA1UdDgQWBBRofC11e9iPsK75pBfiyNC+nxrl
DjANBgkqhkiG9w0BAQsFAAOCAQEAOw7c4hj8KOELw9huZQ91GOzzIP4xzBRcdpPy
Vy8M0OM1woTqYa65KhpRs/mGHK3B7fQvan9UicQXTJfsV3s2QI+MHoTQNQ2NLGvW
K+YMbOMPTg1aYlE86QI/0c3mz1u7EX9+P/B9MtwykZbyVDvweOBZAfC/qZnIrZ+I
eEWGRigvgrQiYOeG1Ug2OvEQYfR+oQtQOG+eWsXxaVLlpcyU0qRIpDFQmMlzWpJd
9vbYFFGqEDdobfPxt6qQseekOQt6jBiZ6QpKdEdR7efVXcKu1/T1KaqN3B+b6bR/
jXn4KBbAXCHZvTaaCXsNLLxLdZyN0WChQyfySVOMmFRrAtIShA==
-----END CERTIFICATE-----
Certificate:
    Data:
        Version: 3 (0x2)
        Serial Number:
            5d:99:29:b6:29:f2:84:0b:e2:cc:01:f8:82:ab:6e:a8
        Signature Algorithm: sha256WithRSAEncryption
        Issuer: C=MX, O=MyDomain Inc., CN=Root CA
        Validity
            Not Before: Nov  5 06:14:52 2023 GMT
            Not After : Nov  2 06:14:52 2033 GMT
        Subject: C=MX, O=MyDomain Inc., CN=Sub CA
        Subject Public Key Info:
            Public Key Algorithm: rsaEncryption
                Public-Key: (2048 bit)
                Modulus:
                    00:b0:f2:18:cd:77:29:b4:80:c1:e3:04:0d:9f:61:
                    ef:5f:08:24:ea:a6:90:b9:30:57:4c:82:c8:9e:54:
                    86:04:fa:cf:48:57:98:a4:5e:e2:25:75:16:8c:d2:
                    34:e7:2b:6a:55:fd:2b:aa:2a:0e:df:4d:94:2b:89:
                    6d:aa:44:43:db:63:6b:d1:54:76:0a:eb:c1:dd:fc:
                    a6:73:9e:d5:1f:37:29:c3:b9:40:4b:0d:25:e1:c1:
                    39:af:b3:04:fe:2b:46:d1:03:51:08:e6:ea:ab:5b:
                    ba:40:a4:ff:06:2b:d2:38:a8:63:6e:bf:47:2e:cc:
                    e8:40:87:15:ad:b5:3f:89:9a:e1:f6:28:70:18:18:
                    80:56:6d:3f:a5:ef:fb:3d:d3:2a:1e:fd:2f:32:f3:
                    76:63:58:c8:a6:37:ad:22:95:f0:df:24:90:ec:97:
                    a1:31:b0:53:4e:04:f7:d4:ff:26:ac:5f:a0:3f:a1:
                    59:2c:ed:69:63:10:97:99:48:e1:2c:81:0b:d6:5f:
                    a4:93:e4:f5:7b:20:dd:3a:43:6b:99:d1:77:23:2c:
                    ae:69:1e:02:cf:eb:0d:8d:3f:a9:ad:8d:f1:77:a4:
                    aa:35:95:61:bf:72:d1:a5:f5:8f:8b:3e:b8:18:32:
                    9d:6b:5a:ea:98:b4:23:59:24:ad:72:fc:22:84:64:
                    19:97
                Exponent: 65537 (0x10001)
        X509v3 extensions:
            Authority Information Access: 
                CA Issuers - URI:http://root-ca.mydomain.com/root-ca.crt
                OCSP - URI:http://ocsp.root-ca.mydomain.com:9080
            X509v3 Authority Key Identifier: 
                F3:5E:66:B7:22:A5:20:FD:C0:45:58:51:9A:32:1A:04:A1:1C:4C:AC
            X509v3 Basic Constraints: critical
                CA:TRUE, pathlen:0
            X509v3 CRL Distribution Points: 
                Full Name:
                  URI:http://root-ca.mydomain.com/root-ca.crl
            X509v3 Extended Key Usage: 
                TLS Web Client Authentication, TLS Web Server Authentication
            X509v3 Key Usage: critical
                Certificate Sign, CRL Sign
            X509v3 Name Constraints: 
                Permitted:
                  DNS:missaelcorp.com
                Excluded:
                  IP:0.0.0.0/0.0.0.0
                  IP:0:0:0:0:0:0:0:0/0:0:0:0:0:0:0:0
            X509v3 Subject Key Identifier: 
                68:78:94:DC:10:C7:39:7C:6E:B6:85:0C:64:BE:5A:11:99:6A:0D:6A
    Signature Algorithm: sha256WithRSAEncryption
    Signature Value:
        3e:00:17:a9:e6:29:ce:05:45:b4:cf:ee:1b:73:91:f5:aa:8d:
        44:7a:3c:23:e1:df:d2:48:1e:c8:c5:a3:1e:a8:06:16:fa:53:
        ab:a6:48:81:57:94:c2:09:b3:3f:4c:77:d1:2a:6c:cd:b1:26:
        8b:a7:e7:b0:bf:18:70:c1:a0:92:4d:85:8f:eb:f1:b3:06:42:
        db:f2:f5:05:ca:0c:b5:6a:d3:43:41:c9:f3:c6:0a:e3:17:3a:
        05:6e:f2:a3:e7:48:03:da:ce:3f:d7:19:58:44:79:9f:93:a0:
        3f:25:73:d5:98:cb:c0:78:4c:3f:0d:33:74:1b:9e:65:60:f2:
        a9:39:0e:53:ac:4d:24:35:48:b1:f2:a3:04:b9:6e:63:c7:bf:
        e1:2e:bc:57:e3:65:70:25:96:e7:96:bf:72:34:a4:b3:50:94:
        b7:9a:a1:ee:5a:83:02:0e:b7:b4:d1:a4:f6:e9:f0:b8:af:89:
        c0:84:78:b3:c8:cd:cb:33:df:cd:ac:55:40:98:26:77:1f:31:
        9b:3f:fb:cc:5a:b1:bd:75:8c:a4:76:5a:2b:08:69:36:22:8f:
        89:70:bb:a2:0d:11:1f:2e:89:55:66:a3:de:4f:15:9f:16:4f:
        6c:f2:cd:41:60:8e:16:82:c1:77:75:ee:57:58:20:d1:24:25:
        bf:8e:96:d8:09:d4:56:fd:82:cc:bf:c1:be:4d:12:04:97:11:
        83:ee:39:71:54:2d:c7:eb:8f:46:64:9b:20:eb:15:a5:fd:49:
        80:1c:68:32:37:ad:87:18:ad:f6:72:8f:ba:cc:f3:e3:9b:bd:
        4c:7b:d1:51:d2:a0:47:d9:e9:43:71:e2:72:f6:85:5e:e5:d1:
        05:cf:b2:11:42:83:50:a4:13:0a:24:f1:2e:b3:45:e6:23:6f:
        4d:95:9c:23:5e:02:74:51:f3:0e:c6:c0:f1:41:ea:96:b1:d4:
        b7:04:ef:3c:2d:3d:30:ad:cd:22:cb:84:47:fe:6f:af:16:b2:
        04:d7:ca:ad:9c:fe:dd:9e:e9:80:c8:88:ab:70:f5:26:03:2a:
        6e:25:c1:1a:fb:77:e9:c3:55:9b:9c:be:8b:99:eb:cf:49:cb:
        f6:54:e5:39:b2:b3:88:7a:15:31:68:69:79:f7:2b:d2:49:3d:
        47:08:cf:33:9a:2e:f2:14:ee:71:03:51:a2:37:25:99:fb:fb:
        36:7c:38:0a:1f:fd:b6:10:37:b2:ce:fc:41:d3:f3:a8:bc:60:
        82:be:da:bb:a3:8c:d9:ff:89:99:1c:58:d2:da:aa:16:72:7e:
        68:15:97:e6:1a:7c:82:05:73:d4:1a:ea:00:f8:7b:d8:52:c0:
        b6:9a:32:7d:3a:1e:8b:65
-----BEGIN CERTIFICATE-----
MIIFhDCCA2ygAwIBAgIQXZkptinyhAvizAH4gqtuqDANBgkqhkiG9w0BAQsFADA3
MQswCQYDVQQGEwJNWDEWMBQGA1UECgwNTXlEb21haW4gSW5jLjEQMA4GA1UEAwwH
Um9vdCBDQTAeFw0yMzExMDUwNjE0NTJaFw0zMzExMDIwNjE0NTJaMDYxCzAJBgNV
BAYTAk1YMRYwFAYDVQQKDA1NeURvbWFpbiBJbmMuMQ8wDQYDVQQDDAZTdWIgQ0Ew
ggEiMA0GCSqGSIb3DQEBAQUAA4IBDwAwggEKAoIBAQCw8hjNdym0gMHjBA2fYe9f
CCTqppC5MFdMgsieVIYE+s9IV5ikXuIldRaM0jTnK2pV/SuqKg7fTZQriW2qREPb
Y2vRVHYK68Hd/KZzntUfNynDuUBLDSXhwTmvswT+K0bRA1EI5uqrW7pApP8GK9I4
qGNuv0cuzOhAhxWttT+JmuH2KHAYGIBWbT+l7/s90yoe/S8y83ZjWMimN60ilfDf
JJDsl6ExsFNOBPfU/yasX6A/oVks7WljEJeZSOEsgQvWX6ST5PV7IN06Q2uZ0Xcj
LK5pHgLP6w2NP6mtjfF3pKo1lWG/ctGl9Y+LPrgYMp1rWuqYtCNZJK1y/CKEZBmX
AgMBAAGjggGLMIIBhzB2BggrBgEFBQcBAQRqMGgwMwYIKwYBBQUHMAKGJ2h0dHA6
Ly9yb290LWNhLm15ZG9tYWluLmNvbS9yb290LWNhLmNydDAxBggrBgEFBQcwAYYl
aHR0cDovL29jc3Aucm9vdC1jYS5teWRvbWFpbi5jb206OTA4MDAfBgNVHSMEGDAW
gBTzXma3IqUg/cBFWFGaMhoEoRxMrDASBgNVHRMBAf8ECDAGAQH/AgEAMDgGA1Ud
HwQxMC8wLaAroCmGJ2h0dHA6Ly9yb290LWNhLm15ZG9tYWluLmNvbS9yb290LWNh
LmNybDAdBgNVHSUEFjAUBggrBgEFBQcDAgYIKwYBBQUHAwEwDgYDVR0PAQH/BAQD
AgEGMFAGA1UdHgRJMEegEzARgg9taXNzYWVsY29ycC5jb22hMDAKhwgAAAAAAAAA
ADAihyAAAAAAAAAAAAAAAAAAAAAAAAAAAAAAAAAAAAAAAAAAADAdBgNVHQ4EFgQU
aHiU3BDHOXxutoUMZL5aEZlqDWowDQYJKoZIhvcNAQELBQADggIBAD4AF6nmKc4F
RbTP7htzkfWqjUR6PCPh39JIHsjFox6oBhb6U6umSIFXlMIJsz9Md9EqbM2xJoun
57C/GHDBoJJNhY/r8bMGQtvy9QXKDLVq00NByfPGCuMXOgVu8qPnSAPazj/XGVhE
eZ+ToD8lc9WYy8B4TD8NM3QbnmVg8qk5DlOsTSQ1SLHyowS5bmPHv+EuvFfjZXAl
lueWv3I0pLNQlLeaoe5agwIOt7TRpPbp8LivicCEeLPIzcsz382sVUCYJncfMZs/
+8xasb11jKR2WisIaTYij4lwu6INER8uiVVmo95PFZ8WT2zyzUFgjhaCwXd17ldY
INEkJb+OltgJ1Fb9gsy/wb5NEgSXEYPuOXFULcfrj0ZkmyDrFaX9SYAcaDI3rYcY
rfZyj7rM8+ObvUx70VHSoEfZ6UNx4nL2hV7l0QXPshFCg1CkEwok8S6zReYjb02V
nCNeAnRR8w7GwPFB6pax1LcE7zwtPTCtzSLLhEf+b68WsgTXyq2c/t2e6YDIiKtw
9SYDKm4lwRr7d+nDVZucvouZ689Jy/ZU5Tmys4h6FTFoaXn3K9JJPUcIzzOaLvIU
7nEDUaI3JZn7+zZ8OAof/bYQN7LO/EHT86i8YIK+2rujjNn/iZkcWNLaqhZyfmgV
l+YafIIFc9Qa6gD4e9hSwLaaMn06Hotl
-----END CERTIFICATE-----
Certificate:
    Data:
        Version: 3 (0x2)
        Serial Number:
            5d:99:29:b6:29:f2:84:0b:e2:cc:01:f8:82:ab:6e:a7
        Signature Algorithm: sha256WithRSAEncryption
        Issuer: C=MX, O=MyDomain Inc., CN=Root CA
        Validity
            Not Before: Nov  5 06:14:40 2023 GMT
            Not After : Nov  2 06:14:40 2033 GMT
        Subject: C=MX, O=MyDomain Inc., CN=Root CA
        Subject Public Key Info:
            Public Key Algorithm: rsaEncryption
                Public-Key: (4096 bit)
                Modulus:
                    00:a4:ff:5e:a9:2c:84:eb:3c:33:97:c4:fa:50:d5:
                    94:31:e4:e5:91:d2:b1:ba:b4:f4:af:d7:d5:a6:bd:
                    42:e0:3b:77:af:38:29:7b:3c:ab:7a:30:bc:5d:51:
                    9d:2b:c4:93:f4:17:ec:64:bd:b0:4d:cb:c6:c7:07:
                    65:bd:c0:f8:59:e0:67:b8:3c:1d:90:a1:53:ed:a6:
                    17:36:19:3c:19:a7:f3:e2:cd:e6:e0:41:d1:0e:03:
                    76:50:93:3b:68:45:e4:4e:ef:d6:2d:c8:3e:04:55:
                    28:de:0d:40:40:aa:b8:b8:cb:07:ca:b3:d1:77:b9:
                    6d:da:75:f9:8d:bc:da:8e:85:05:9b:77:d9:d6:28:
                    55:75:cd:62:1b:1b:48:d9:d0:ce:c7:08:36:27:87:
                    6e:0f:47:80:54:21:bd:9e:45:41:42:25:16:d2:df:
                    17:de:c4:17:fd:70:9f:cb:29:64:d6:26:3b:a3:1d:
                    bf:df:f4:65:3a:cd:b7:9b:ee:72:8b:49:a9:20:da:
                    d3:4e:72:84:ac:ba:6d:0a:22:84:97:1e:5c:73:32:
                    e6:33:11:38:63:df:51:00:5e:12:66:83:32:29:46:
                    17:54:82:0e:b6:70:fa:7b:a2:48:cd:20:96:07:0a:
                    46:b2:2e:b8:40:23:63:52:54:ab:1d:23:36:9a:60:
                    23:b9:2f:87:24:b9:aa:e4:88:f2:bc:a7:a9:75:7b:
                    2b:d3:e1:c3:b1:dd:a4:81:b9:b7:d7:6b:d9:26:8c:
                    a3:eb:e6:47:30:d9:a9:0e:ba:c3:9f:4b:12:eb:82:
                    4e:b1:92:1c:f9:80:dc:fd:2d:25:c5:eb:0c:cd:fb:
                    93:d7:d2:9c:6f:f2:59:c5:f8:11:85:fe:9b:b3:ac:
                    25:aa:21:e1:d5:0e:8d:4f:10:35:a4:ea:bd:6e:ba:
                    9d:4b:97:59:0e:f0:90:ce:62:c9:d1:df:0b:85:5c:
                    58:05:03:a5:84:0a:5d:2f:76:70:66:23:c7:44:85:
                    1e:a9:20:d0:92:a6:87:53:fe:7d:08:f4:18:77:56:
                    04:2f:c1:d8:7a:3d:e3:43:89:1e:59:4c:09:f8:6a:
                    14:74:32:bf:32:c4:14:c3:64:35:79:3b:06:b1:6b:
                    78:52:f1:bc:00:70:6b:1b:cd:79:82:af:98:c6:a2:
                    d5:03:11:81:ba:ef:1a:b0:32:b5:47:28:28:3c:15:
                    9c:3b:99:0d:eb:25:53:b8:16:63:ab:c7:ad:58:c5:
                    39:ed:9d:9f:86:b7:35:2a:b0:80:24:15:11:dc:28:
                    fb:35:0b:d3:29:60:81:9c:9c:db:d7:99:3b:fa:80:
                    49:a4:fd:c9:04:05:f1:46:f8:3d:b7:ef:18:59:26:
                    d4:23:cf
                Exponent: 65537 (0x10001)
        X509v3 extensions:
            X509v3 Basic Constraints: critical
                CA:TRUE
            X509v3 Key Usage: critical
                Certificate Sign, CRL Sign
            X509v3 Subject Key Identifier: 
                F3:5E:66:B7:22:A5:20:FD:C0:45:58:51:9A:32:1A:04:A1:1C:4C:AC
    Signature Algorithm: sha256WithRSAEncryption
    Signature Value:
        5c:e5:ac:a5:37:2f:c5:f0:a3:36:f0:7e:e7:31:99:e0:4e:16:
        9d:53:37:e1:1f:4c:55:f3:24:2f:3f:3e:99:fe:34:c3:34:cc:
        b7:1b:6a:86:0c:4d:49:9f:e3:f7:7f:da:17:6a:9c:ca:04:82:
        e5:02:9c:6b:ab:ce:1f:7e:fe:73:24:3a:c5:a9:a6:01:85:83:
        60:de:6d:30:69:af:47:22:7d:b0:3d:37:46:4f:3d:d0:be:ed:
        ea:a2:19:7c:ae:50:cb:0f:70:2e:49:22:f0:d7:c1:1a:6e:45:
        dc:44:03:e8:b6:7d:66:7c:7c:a9:f8:47:aa:a4:22:97:0c:4a:
        41:9e:1d:c9:72:59:5b:d4:03:51:4d:e7:ea:97:f2:55:cb:e5:
        58:b2:1e:88:36:77:2d:1b:84:95:30:21:88:f2:b4:3b:6d:60:
        59:e4:7a:1c:b4:b1:24:c3:e9:50:48:d7:8b:16:27:23:54:49:
        6a:d1:fd:01:14:4a:01:3e:9b:d7:ff:2e:96:b4:4d:48:06:f0:
        15:ad:b3:8b:34:02:56:3a:a0:39:be:81:50:7b:b0:dd:10:69:
        34:ed:01:a0:e7:c3:41:38:5b:e2:3a:04:29:98:72:99:73:c7:
        e9:0c:d3:69:dd:3b:df:67:43:ce:26:2e:a9:cb:40:60:45:5b:
        e1:fd:4e:d9:e6:68:df:ff:21:aa:ef:41:08:5e:47:e9:24:1c:
        d1:44:d0:fc:c1:32:8b:01:db:af:68:77:a6:4e:2a:fe:d4:95:
        3f:ae:00:23:56:78:dd:d9:d8:d8:7e:18:b1:f5:82:25:87:79:
        7b:91:d0:9c:18:64:25:62:71:0c:d3:05:01:b0:71:ca:ce:76:
        98:d2:bd:97:e5:da:8a:0f:19:cc:0d:13:b8:fa:65:3b:8b:41:
        cc:b5:7a:0d:97:be:60:5c:0a:6d:01:40:7e:fd:0b:26:d5:78:
        a6:63:60:e2:92:56:c3:ab:c7:ec:2a:6f:6b:d2:04:33:5d:63:
        1b:89:2c:28:2f:31:4e:ad:fe:f6:ca:95:3e:c7:3b:f3:3c:ee:
        2f:59:da:18:db:7e:ee:7d:af:ea:47:50:3f:c5:61:6d:f3:cd:
        74:78:7e:f8:d9:bd:1f:96:0c:05:42:22:b6:cb:6d:3b:66:1e:
        25:38:f1:71:8b:e0:59:cd:ba:c4:07:d6:aa:41:d0:c4:c6:9b:
        10:9f:4b:76:b5:58:85:a3:e2:ce:ee:20:f4:f9:0c:f5:47:57:
        10:56:d8:76:07:af:06:64:f0:cf:f2:a0:0b:8a:43:37:35:bd:
        90:04:60:27:2e:41:ff:a4:e7:9d:1e:36:5b:72:92:6e:d0:f4:
        59:97:2f:7a:6e:9c:a7:c2
-----BEGIN CERTIFICATE-----
MIIFOjCCAyKgAwIBAgIQXZkptinyhAvizAH4gqtupzANBgkqhkiG9w0BAQsFADA3
MQswCQYDVQQGEwJNWDEWMBQGA1UECgwNTXlEb21haW4gSW5jLjEQMA4GA1UEAwwH
Um9vdCBDQTAeFw0yMzExMDUwNjE0NDBaFw0zMzExMDIwNjE0NDBaMDcxCzAJBgNV
BAYTAk1YMRYwFAYDVQQKDA1NeURvbWFpbiBJbmMuMRAwDgYDVQQDDAdSb290IENB
MIICIjANBgkqhkiG9w0BAQEFAAOCAg8AMIICCgKCAgEApP9eqSyE6zwzl8T6UNWU
MeTlkdKxurT0r9fVpr1C4Dt3rzgpezyrejC8XVGdK8ST9BfsZL2wTcvGxwdlvcD4
WeBnuDwdkKFT7aYXNhk8Gafz4s3m4EHRDgN2UJM7aEXkTu/WLcg+BFUo3g1AQKq4
uMsHyrPRd7lt2nX5jbzajoUFm3fZ1ihVdc1iGxtI2dDOxwg2J4duD0eAVCG9nkVB
QiUW0t8X3sQX/XCfyylk1iY7ox2/3/RlOs23m+5yi0mpINrTTnKErLptCiKElx5c
czLmMxE4Y99RAF4SZoMyKUYXVIIOtnD6e6JIzSCWBwpGsi64QCNjUlSrHSM2mmAj
uS+HJLmq5IjyvKepdXsr0+HDsd2kgbm312vZJoyj6+ZHMNmpDrrDn0sS64JOsZIc
+YDc/S0lxesMzfuT19Kcb/JZxfgRhf6bs6wlqiHh1Q6NTxA1pOq9brqdS5dZDvCQ
zmLJ0d8LhVxYBQOlhApdL3ZwZiPHRIUeqSDQkqaHU/59CPQYd1YEL8HYej3jQ4ke
WUwJ+GoUdDK/MsQUw2Q1eTsGsWt4UvG8AHBrG815gq+YxqLVAxGBuu8asDK1Rygo
PBWcO5kN6yVTuBZjq8etWMU57Z2fhrc1KrCAJBUR3Cj7NQvTKWCBnJzb15k7+oBJ
pP3JBAXxRvg9t+8YWSbUI88CAwEAAaNCMEAwDwYDVR0TAQH/BAUwAwEB/zAOBgNV
HQ8BAf8EBAMCAQYwHQYDVR0OBBYEFPNeZrcipSD9wEVYUZoyGgShHEysMA0GCSqG
SIb3DQEBCwUAA4ICAQBc5aylNy/F8KM28H7nMZngThadUzfhH0xV8yQvPz6Z/jTD
NMy3G2qGDE1Jn+P3f9oXapzKBILlApxrq84ffv5zJDrFqaYBhYNg3m0waa9HIn2w
PTdGTz3Qvu3qohl8rlDLD3AuSSLw18EabkXcRAPotn1mfHyp+EeqpCKXDEpBnh3J
cllb1ANRTefql/JVy+VYsh6INnctG4SVMCGI8rQ7bWBZ5HoctLEkw+lQSNeLFicj
VElq0f0BFEoBPpvX/y6WtE1IBvAVrbOLNAJWOqA5voFQe7DdEGk07QGg58NBOFvi
OgQpmHKZc8fpDNNp3TvfZ0POJi6py0BgRVvh/U7Z5mjf/yGq70EIXkfpJBzRRND8
wTKLAduvaHemTir+1JU/rgAjVnjd2djYfhix9YIlh3l7kdCcGGQlYnEM0wUBsHHK
znaY0r2X5dqKDxnMDRO4+mU7i0HMtXoNl75gXAptAUB+/Qsm1XimY2DiklbDq8fs
Km9r0gQzXWMbiSwoLzFOrf72ypU+xzvzPO4vWdoY237ufa/qR1A/xWFt8810eH74
2b0flgwFQiK2y207Zh4lOPFxi+BZzbrEB9aqQdDExpsQn0t2tViFo+LO7iD0+Qz1
R1cQVth2B68GZPDP8qALikM3Nb2QBGAnLkH/pOedHjZbcpJu0PRZly96bpynwg==
-----END CERTIFICATE-----
